(lp0
F101.0
aF101.0
aF150.0
aS'06:00'
p1
aS'16:00'
p2
aS'06:00'
p3
aS'16:00'
p4
aS'06:00'
p5
aS'16:00'
p6
aS'06:00'
p7
aS'16:00'
p8
aS'06:00'
p9
aS'16:00'
p10
aS'06:00'
p11
aS'16:00'
p12
aS'06:00'
p13
aS'22:00'
p14
a.